target datalayout = "e-m:e-p270:32:32-p271:32:32-p272:64:64-i64:64-i128:128-f80:128-n8:16:32:64-S128"
target triple = "x86_64-pc-linux-gnu"

%struct.Agobj_s = type { %struct.Agtag_s, ptr }
%struct.Agtag_s = type { i32, i64 }
%struct.Agraphinfo_t = type { %struct.Agrec_s, ptr, ptr, %struct.boxf, [4 x %struct.pointf_s], i8, i8, i8, i8, i32, double, double, i16, ptr, ptr, ptr, ptr, i32, ptr, ptr, ptr, ptr, i16, i16, i32, ptr, ptr, ptr, ptr, ptr, i32, ptr, ptr, %struct.nlist_t, ptr, ptr, i32, i32, i8, i8, i32, i32, i32, ptr, ptr, ptr, ptr, i8, i8, i8, i8, i8 }
%struct.Agrec_s = type { ptr, ptr }
%struct.boxf = type { %struct.pointf_s, %struct.pointf_s }
%struct.pointf_s = type { double, double }
%struct.nlist_t = type { ptr, i64 }

@.str = private unnamed_addr constant [9 x i8] c"nslimit1\00", align 1

; Function Attrs: inlinehint nounwind uwtable
define internal i32 @scale_clamp(i32 noundef %0, double noundef %1) #3 {
  %3 = alloca i32, align 4
  %4 = alloca i32, align 4
  %5 = alloca double, align 8
  store i32 %0, ptr %4, align 4, !tbaa !45
  store double %1, ptr %5, align 8, !tbaa !53
  %6 = load double, ptr %5, align 8, !tbaa !53
  %7 = fcmp olt double %6, 0.000000e+00
  br i1 %7, label %8, label %9

8:                                                ; preds = %2
  store i32 0, ptr %3, align 4
  br label %25

9:                                                ; preds = %2
  %10 = load double, ptr %5, align 8, !tbaa !53
  %11 = fcmp ogt double %10, 1.000000e+00
  br i1 %11, label %12, label %19

12:                                               ; preds = %9
  %13 = load i32, ptr %4, align 4, !tbaa !45
  %14 = sitofp i32 %13 to double
  %15 = load double, ptr %5, align 8, !tbaa !53
  %16 = fdiv double 0x41DFFFFFFFC00000, %15
  %17 = fcmp ogt double %14, %16
  br i1 %17, label %18, label %19

18:                                               ; preds = %12
  store i32 2147483647, ptr %3, align 4
  br label %25

19:                                               ; preds = %12, %9
  %20 = load i32, ptr %4, align 4, !tbaa !45
  %21 = sitofp i32 %20 to double
  %22 = load double, ptr %5, align 8, !tbaa !53
  %23 = fmul double %21, %22
  %24 = fptosi double %23 to i32
  store i32 %24, ptr %3, align 4
  br label %25

25:                                               ; preds = %19, %18, %8
  %26 = load i32, ptr %3, align 4
  ret i32 %26
}

; Function Attrs: inlinehint nounwind willreturn memory(read) uwtable
define available_externally double @atof(ptr noundef nonnull %0) #4 {
  %2 = alloca ptr, align 8
  store ptr %0, ptr %2, align 8, !tbaa !46
  %3 = load ptr, ptr %2, align 8, !tbaa !46
  %4 = call double @strtod(ptr noundef %3, ptr noundef null) #13
  ret double %4
}

; Function Attrs: nounwind uwtable
define void @rank1(ptr noundef %0) #0 {
  %2 = alloca ptr, align 8
  %3 = alloca i32, align 4
  %4 = alloca ptr, align 8
  %5 = alloca i64, align 8
  store ptr %0, ptr %2, align 8, !tbaa !3
  call void @llvm.lifetime.start.p0(i64 4, ptr %3) #13
  store i32 2147483647, ptr %3, align 4, !tbaa !45
  call void @llvm.lifetime.start.p0(i64 8, ptr %4) #13
  %6 = load ptr, ptr %2, align 8, !tbaa !3
  %7 = call ptr @agget(ptr noundef %6, ptr noundef @.str)
  store ptr %7, ptr %4, align 8, !tbaa !46
  %8 = icmp ne ptr %7, null
  br i1 %8, label %9, label %15

9:                                                ; preds = %1
  %10 = load ptr, ptr %2, align 8, !tbaa !3
  %11 = call i32 @agnnodes(ptr noundef %10)
  %12 = load ptr, ptr %4, align 8, !tbaa !46
  %13 = call double @atof(ptr noundef %12) #14
  %14 = call i32 @scale_clamp(i32 noundef %11, double noundef %13)
  store i32 %14, ptr %3, align 4, !tbaa !45
  br label %15

15:                                               ; preds = %9, %1
  call void @llvm.lifetime.start.p0(i64 8, ptr %5) #13
  store i64 0, ptr %5, align 8, !tbaa !47
  br label %16

16:                                               ; preds = %50, %15
  %17 = load i64, ptr %5, align 8, !tbaa !47
  %18 = load ptr, ptr %2, align 8, !tbaa !3
  %19 = getelementptr inbounds nuw %struct.Agobj_s, ptr %18, i32 0, i32 1
  %20 = load ptr, ptr %19, align 8, !tbaa !10
  %21 = getelementptr inbounds nuw %struct.Agraphinfo_t, ptr %20, i32 0, i32 33
  %22 = getelementptr inbounds nuw %struct.nlist_t, ptr %21, i32 0, i32 1
  %23 = load i64, ptr %22, align 8, !tbaa !48
  %24 = icmp ult i64 %17, %23
  br i1 %24, label %26, label %25

25:                                               ; preds = %16
  call void @llvm.lifetime.end.p0(i64 8, ptr %5) #13
  br label %53

26:                                               ; preds = %16
  %27 = load ptr, ptr %2, align 8, !tbaa !3
  %28 = getelementptr inbounds nuw %struct.Agobj_s, ptr %27, i32 0, i32 1
  %29 = load ptr, ptr %28, align 8, !tbaa !10
  %30 = getelementptr inbounds nuw %struct.Agraphinfo_t, ptr %29, i32 0, i32 33
  %31 = getelementptr inbounds nuw %struct.nlist_t, ptr %30, i32 0, i32 0
  %32 = load ptr, ptr %31, align 8, !tbaa !49
  %33 = load i64, ptr %5, align 8, !tbaa !47
  %34 = getelementptr inbounds nuw ptr, ptr %32, i64 %33
  %35 = load ptr, ptr %34, align 8, !tbaa !8
  %36 = load ptr, ptr %2, align 8, !tbaa !3
  %37 = getelementptr inbounds nuw %struct.Agobj_s, ptr %36, i32 0, i32 1
  %38 = load ptr, ptr %37, align 8, !tbaa !10
  %39 = getelementptr inbounds nuw %struct.Agraphinfo_t, ptr %38, i32 0, i32 27
  store ptr %35, ptr %39, align 8, !tbaa !50
  %40 = load ptr, ptr %2, align 8, !tbaa !3
  %41 = load ptr, ptr %2, align 8, !tbaa !3
  %42 = getelementptr inbounds nuw %struct.Agobj_s, ptr %41, i32 0, i32 1
  %43 = load ptr, ptr %42, align 8, !tbaa !10
  %44 = getelementptr inbounds nuw %struct.Agraphinfo_t, ptr %43, i32 0, i32 24
  %45 = load i32, ptr %44, align 4, !tbaa !51
  %46 = icmp eq i32 %45, 0
  %47 = select i1 %46, i32 1, i32 0
  %48 = load i32, ptr %3, align 4, !tbaa !45
  %49 = call i32 @rank(ptr noundef %40, i32 noundef %47, i32 noundef %48)
  br label %50

50:                                               ; preds = %26
  %51 = load i64, ptr %5, align 8, !tbaa !47
  %52 = add i64 %51, 1
  store i64 %52, ptr %5, align 8, !tbaa !47
  br label %16, !llvm.loop !52

53:                                               ; preds = %25
  call void @llvm.lifetime.end.p0(i64 8, ptr %4) #13
  call void @llvm.lifetime.end.p0(i64 4, ptr %3) #13
  ret void
}