; Function Attrs: nounwind uwtable
define void @rank1(ptr noundef %0) local_unnamed_addr #0 {
  %2 = tail call ptr @agget(ptr noundef %0, ptr noundef nonnull @.str) #15
  %.not = icmp eq ptr %2, null
  br i1 %.not, label %scale_clamp.exit, label %3

3:                                                ; preds = %1
  %4 = tail call i32 @agnnodes(ptr noundef %0) #15
  %5 = tail call double @strtod(ptr noundef nonnull captures(none) %2, ptr noundef null) #15
  %6 = fcmp olt double %5, 0.000000e+00
  br i1 %6, label %scale_clamp.exit, label %7

7:                                                ; preds = %3
  %8 = fcmp ogt double %5, 1.000000e+00
  %9 = sitofp i32 %4 to double
  %10 = fdiv double 0x41DFFFFFFFC00000, %5
  %11 = fcmp olt double %10, %9
  %or.cond.i = and i1 %8, %11
  br i1 %or.cond.i, label %scale_clamp.exit, label %._crit_edge.i

._crit_edge.i:                                    ; preds = %7
  %12 = fmul double %5, %9
  %13 = fptosi double %12 to i32
  br label %scale_clamp.exit

scale_clamp.exit:                                 ; preds = %._crit_edge.i, %7, %3, %1
  %.011 = phi i32 [ 2147483647, %1 ], [ %13, %._crit_edge.i ], [ 0, %3 ], [ 2147483647, %7 ]
  %14 = getelementptr inbounds nuw i8, ptr %0, i64 16
  %15 = load ptr, ptr %14, align 8, !tbaa !3
  %16 = getelementptr inbounds nuw i8, ptr %15, i64 312
  %17 = load i64, ptr %16, align 8, !tbaa !43
  %.not14 = icmp eq i64 %17, 0
  br i1 %.not14, label %._crit_edge, label %.lr.ph

._crit_edge:                                      ; preds = %.lr.ph, %scale_clamp.exit
  ret void

.lr.ph:                                           ; preds = %scale_clamp.exit, %.lr.ph
  %18 = phi ptr [ %30, %.lr.ph ], [ %15, %scale_clamp.exit ]
  %.013 = phi i64 [ %29, %.lr.ph ], [ 0, %scale_clamp.exit ]
  %19 = getelementptr inbounds nuw i8, ptr %18, i64 304
  %20 = load ptr, ptr %19, align 8, !tbaa !44
  %21 = getelementptr inbounds nuw ptr, ptr %20, i64 %.013
  %22 = load ptr, ptr %21, align 8, !tbaa !45
  %23 = getelementptr inbounds nuw i8, ptr %18, i64 256
  store ptr %22, ptr %23, align 8, !tbaa !46
  %24 = getelementptr inbounds nuw i8, ptr %18, i64 236
  %25 = load i32, ptr %24, align 4, !tbaa !47
  %26 = icmp eq i32 %25, 0
  %27 = zext i1 %26 to i32
  %28 = tail call i32 @rank(ptr noundef nonnull %0, i32 noundef %27, i32 noundef %.011) #15
  %29 = add nuw i64 %.013, 1
  %30 = load ptr, ptr %14, align 8, !tbaa !3
  %31 = getelementptr inbounds nuw i8, ptr %30, i64 312
  %32 = load i64, ptr %31, align 8, !tbaa !43
  %33 = icmp ult i64 %29, %32
  br i1 %33, label %.lr.ph, label %._crit_edge, !llvm.loop !48
}